Certificate:
    Data:
        Version: 3 (0x2)
        Serial Number: 8 (0x8)
    Signature Algorithm: sha256WithRSAEncryption
        Issuer: CN=openshift-signer@1553461099
        Validity
            Not Before: Apr  3 21:32:43 2019 GMT
            Not After : Apr  2 21:32:43 2020 GMT
        Subject: C=IT, ST=Rome, L=Rome, O=ACME Corp, CN=nc-server.myproject.svc
        Subject Public Key Info:
            Public Key Algorithm: rsaEncryption
                Public-Key: (2048 bit)
                Modulus:
                    00:da:8f:8e:0f:cb:f5:66:cc:f7:da:6a:fc:7e:d8:
                    47:d4:85:12:c0:32:64:9b:f2:9a:ff:f7:37:9f:bb:
                    40:87:fe:3c:66:53:ab:98:80:2b:11:ff:37:6e:c2:
                    11:30:a2:c4:fd:f9:b0:90:3f:2a:9c:d4:86:d8:3d:
                    1a:36:b9:8b:6d:14:a9:47:eb:6f:f2:be:0a:c9:8c:
                    bd:f2:1d:8d:04:cb:1a:13:39:a9:be:a9:24:f3:08:
                    3f:77:28:12:75:fe:8b:ca:55:f7:c3:56:51:21:70:
                    5c:4c:75:c0:ea:6b:34:79:a2:c7:dd:2c:0c:3c:a7:
                    31:52:5f:fd:ad:f2:87:29:59:06:52:c3:8c:e7:02:
                    f2:d8:48:59:3e:bc:ba:a4:03:c5:6c:65:cf:ce:4f:
                    38:96:48:f6:d2:f2:69:e1:88:f1:37:29:bd:05:6d:
                    ee:40:c6:b7:62:5b:f0:4e:1c:c4:1e:3e:a9:37:77:
                    bd:42:db:ae:7e:82:39:62:68:8a:93:0f:e3:c2:f7:
                    9d:6b:d0:bd:56:97:8f:6d:4b:77:85:29:49:7a:83:
                    97:cc:7b:25:1a:1f:47:69:f8:d9:a3:c6:44:bb:ae:
                    74:71:3d:ab:d2:b6:5b:79:cc:52:71:1d:4a:48:0e:
                    1b:c1:22:0e:d9:9d:97:ed:46:31:2f:53:82:4b:ea:
                    2d:f1
                Exponent: 65537 (0x10001)
        X509v3 extensions:
            X509v3 Subject Key Identifier: 
                BA:DB:26:2D:88:C4:3E:72:9A:D3:04:83:50:B2:06:AF:3D:34:54:65
            X509v3 Authority Key Identifier: 
                DirName:/CN=openshift-signer@1553461099
                serial:01

            X509v3 Basic Constraints: 
                CA:FALSE
            X509v3 Key Usage: 
                Digital Signature, Key Encipherment
            X509v3 Subject Alternative Name: 
                DNS:mwc-example, DNS:mwc-example.mwc-example, DNS:mwc-example.mwc-example.svc
            Netscape Comment: 
                OpenSSL Generated Certificate
    Signature Algorithm: sha256WithRSAEncryption
         3e:28:27:cb:b1:b9:c3:d2:49:8e:1e:0d:07:89:42:ca:3b:ce:
         06:6c:7b:13:c5:7b:b7:7b:0c:8a:fa:f6:53:89:37:47:a4:11:
         5a:fb:25:6d:99:10:99:85:99:5d:e6:2f:90:71:b1:83:c7:d7:
         d5:66:c8:28:bd:9a:85:ae:43:98:19:ec:c2:31:be:45:22:94:
         b6:60:22:dc:bc:52:f0:3e:14:9d:9c:97:57:5d:78:db:ea:69:
         1e:a3:66:52:42:5c:a0:f1:03:2f:c0:81:83:88:ac:61:18:f0:
         b8:40:d4:d7:fb:5f:a4:d6:c1:c7:d7:b5:51:aa:95:37:1f:2e:
         d0:f6:3c:85:7f:d6:5f:99:15:c9:5d:9f:8a:52:79:ed:7d:b6:
         7e:56:41:b1:f2:2b:b1:cd:bb:84:1b:22:35:6c:21:57:87:68:
         eb:56:94:30:dd:20:59:1f:15:f7:06:36:39:08:07:f1:41:be:
         8d:83:c6:79:46:51:e0:78:5e:66:3d:c1:f9:ae:5e:86:b0:ac:
         61:29:93:ba:d9:92:2b:5e:37:04:81:d8:77:2c:a6:72:a1:15:
         41:3e:c4:30:c4:dc:38:a7:39:49:b2:38:29:57:52:8d:93:5f:
         d7:6e:7a:90:0a:fe:52:6f:1f:55:32:71:20:5a:97:4e:bf:8b:
         82:a8:86:cc
-----BEGIN CERTIFICATE-----
MIID8zCCAtugAwIBAgIBCDANBgkqhkiG9w0BAQsFADAmMSQwIgYDVQQDDBtvcGVu
c2hpZnQtc2lnbmVyQDE1NTM0NjEwOTkwHhcNMTkwNDAzMjEzMjQzWhcNMjAwNDAy
MjEzMjQzWjBhMQswCQYDVQQGEwJJVDENMAsGA1UECAwEUm9tZTENMAsGA1UEBwwE
Um9tZTESMBAGA1UECgwJQUNNRSBDb3JwMSAwHgYDVQQDDBduYy1zZXJ2ZXIubXlw
cm9qZWN0LnN2YzCCASIwDQYJKoZIhvcNAQEBBQADggEPADCCAQoCggEBANqPjg/L
9WbM99pq/H7YR9SFEsAyZJvymv/3N5+7QIf+PGZTq5iAKxH/N27CETCixP35sJA/
KpzUhtg9Gja5i20UqUfrb/K+CsmMvfIdjQTLGhM5qb6pJPMIP3coEnX+i8pV98NW
USFwXEx1wOprNHmix90sDDynMVJf/a3yhylZBlLDjOcC8thIWT68uqQDxWxlz85P
OJZI9tLyaeGI8TcpvQVt7kDGt2Jb8E4cxB4+qTd3vULbrn6COWJoipMP48L3nWvQ
vVaXj21Ld4UpSXqDl8x7JRofR2n42aPGRLuudHE9q9K2W3nMUnEdSkgOG8EiDtmd
l+1GMS9TgkvqLfECAwEAAaOB8DCB7TAdBgNVHQ4EFgQUutsmLYjEPnKa0wSDULIG
rz00VGUwOAYDVR0jBDEwL6EqpCgwJjEkMCIGA1UEAwwbb3BlbnNoaWZ0LXNpZ25l
ckAxNTUzNDYxMDk5ggEBMAkGA1UdEwQCMAAwCwYDVR0PBAQDAgWgMEwGA1UdEQRF
MEOCC213Yy1leGFtcGxlghdtd2MtZXhhbXBsZS5td2MtZXhhbXBsZYIbbXdjLWV4
YW1wbGUubXdjLWV4YW1wbGUuc3ZjMCwGCWCGSAGG+EIBDQQfFh1PcGVuU1NMIEdl
bmVyYXRlZCBDZXJ0aWZpY2F0ZTANBgkqhkiG9w0BAQsFAAOCAQEAPigny7G5w9JJ
jh4NB4lCyjvOBmx7E8V7t3sMivr2U4k3R6QRWvslbZkQmYWZXeYvkHGxg8fX1WbI
KL2aha5DmBnswjG+RSKUtmAi3LxS8D4UnZyXV1142+ppHqNmUkJcoPEDL8CBg4is
YRjwuEDU1/tfpNbBx9e1UaqVNx8u0PY8hX/WX5kVyV2filJ57X22flZBsfIrsc27
hBsiNWwhV4do61aUMN0gWR8V9wY2OQgH8UG+jYPGeUZR4HheZj3B+a5ehrCsYSmT
utmSK143BIHYdyymcqEVQT7EMMTcOKc5SbI4KVdSjZNf1256kAr+Um8fVTJxIFqX
Tr+LgqiGzA==
-----END CERTIFICATE-----
